; Function Attrs: nounwind uwtable
define internal range(i32 0, 2) i32 @_gradient_slider_scroll_event(ptr noundef %0, ptr noundef %1) #0 {
  %3 = alloca i32, align 4
  %4 = load atomic i64, ptr @_gradient_slider_get_type.static_g_define_type_id seq_cst, align 8
  %.not.i.i.i = icmp eq i64 %4, 0
  br i1 %.not.i.i.i, label %5, label %dtgtk_gradient_slider_get_type.exit.i

5:                                                ; preds = %2
  %6 = tail call i32 @g_once_init_enter(ptr noundef nonnull @_gradient_slider_get_type.static_g_define_type_id) #14
  %.not4.i.i.i = icmp eq i32 %6, 0
  br i1 %.not4.i.i.i, label %dtgtk_gradient_slider_get_type.exit.i, label %7

7:                                                ; preds = %5
  %8 = tail call fastcc i64 @_gradient_slider_get_type_once()
  tail call void @g_once_init_leave(ptr noundef nonnull @_gradient_slider_get_type.static_g_define_type_id, i64 noundef %8) #14
  br label %dtgtk_gradient_slider_get_type.exit.i

dtgtk_gradient_slider_get_type.exit.i:            ; preds = %7, %5, %2
  %9 = load i64, ptr @_gradient_slider_get_type.static_g_define_type_id, align 8, !tbaa !6
  %.not.i = icmp eq ptr %0, null
  br i1 %.not.i, label %DTGTK_IS_GRADIENT_SLIDER.exit.thread, label %10

10:                                               ; preds = %dtgtk_gradient_slider_get_type.exit.i
  %11 = load ptr, ptr %0, align 8, !tbaa !113
  %.not10.i = icmp eq ptr %11, null
  br i1 %.not10.i, label %DTGTK_IS_GRADIENT_SLIDER.exit, label %12

12:                                               ; preds = %10
  %13 = load i64, ptr %11, align 8, !tbaa !107
  %14 = icmp eq i64 %13, %9
  br i1 %14, label %DTGTK_IS_GRADIENT_SLIDER.exit.thread24, label %DTGTK_IS_GRADIENT_SLIDER.exit

DTGTK_IS_GRADIENT_SLIDER.exit:                    ; preds = %10, %12
  %15 = tail call i32 @g_type_check_instance_is_a(ptr noundef nonnull readonly %0, i64 noundef %9) #17
  %.not = icmp eq i32 %15, 0
  br i1 %.not, label %DTGTK_IS_GRADIENT_SLIDER.exit.thread, label %DTGTK_IS_GRADIENT_SLIDER.exit.thread24, !prof !114

DTGTK_IS_GRADIENT_SLIDER.exit.thread:             ; preds = %dtgtk_gradient_slider_get_type.exit.i, %DTGTK_IS_GRADIENT_SLIDER.exit
  tail call void @g_return_if_fail_warning(ptr noundef null, ptr noundef nonnull @__func__._gradient_slider_scroll_event, ptr noundef nonnull @.str.9) #14
  br label %43

DTGTK_IS_GRADIENT_SLIDER.exit.thread24:           ; preds = %12, %DTGTK_IS_GRADIENT_SLIDER.exit
  %16 = tail call i32 @dt_gui_ignore_scroll(ptr noundef %1) #14
  %.not17 = icmp eq i32 %16, 0
  br i1 %.not17, label %17, label %43

17:                                               ; preds = %DTGTK_IS_GRADIENT_SLIDER.exit.thread24
  %18 = load atomic i64, ptr @_gradient_slider_get_type.static_g_define_type_id seq_cst, align 8
  %.not.i.i.i19 = icmp eq i64 %18, 0
  br i1 %.not.i.i.i19, label %19, label %DTGTK_GRADIENT_SLIDER.exit

19:                                               ; preds = %17
  %20 = tail call i32 @g_once_init_enter(ptr noundef nonnull @_gradient_slider_get_type.static_g_define_type_id) #14
  %.not4.i.i.i21 = icmp eq i32 %20, 0
  br i1 %.not4.i.i.i21, label %DTGTK_GRADIENT_SLIDER.exit, label %21

21:                                               ; preds = %19
  %22 = tail call fastcc i64 @_gradient_slider_get_type_once()
  tail call void @g_once_init_leave(ptr noundef nonnull @_gradient_slider_get_type.static_g_define_type_id, i64 noundef %22) #14
  br label %DTGTK_GRADIENT_SLIDER.exit

DTGTK_GRADIENT_SLIDER.exit:                       ; preds = %17, %19, %21
  %23 = load i64, ptr @_gradient_slider_get_type.static_g_define_type_id, align 8, !tbaa !6
  %24 = tail call ptr @g_type_check_instance_cast(ptr noundef nonnull %0, i64 noundef %23) #14
  %25 = getelementptr inbounds nuw i8, ptr %24, i64 48
  %26 = load i32, ptr %25, align 8, !tbaa !32
  %27 = icmp sgt i32 %26, -1
  br i1 %27, label %_get_active_marker.exit.thread, label %_get_active_marker.exit

_get_active_marker.exit:                          ; preds = %DTGTK_GRADIENT_SLIDER.exit
  %28 = getelementptr inbounds nuw i8, ptr %24, i64 52
  %29 = load i32, ptr %28, align 4, !tbaa !33
  %30 = icmp eq i32 %29, -1
  br i1 %30, label %43, label %_get_active_marker.exit.thread

_get_active_marker.exit.thread:                   ; preds = %DTGTK_GRADIENT_SLIDER.exit, %_get_active_marker.exit
  %31 = phi i32 [ %29, %_get_active_marker.exit ], [ %26, %DTGTK_GRADIENT_SLIDER.exit ]
  tail call void @gtk_widget_grab_focus(ptr noundef nonnull %0) #14
  call void @llvm.lifetime.start.p0(i64 4, ptr nonnull %3) #14
  %32 = call i32 @dt_gui_get_scroll_unit_delta(ptr noundef %1, ptr noundef nonnull %3) #14
  %.not18 = icmp eq i32 %32, 0
  br i1 %.not18, label %42, label %33

33:                                               ; preds = %_get_active_marker.exit.thread
  %34 = load i32, ptr %3, align 4, !tbaa !44
  %35 = sitofp i32 %34 to double
  %36 = getelementptr inbounds nuw i8, ptr %24, i64 264
  %37 = load double, ptr %36, align 8, !tbaa !38
  %38 = fneg reassoc nsz arcp contract afn double %37
  %39 = fmul reassoc nsz arcp contract afn double %38, %35
  %40 = getelementptr inbounds nuw i8, ptr %1, i64 40
  %41 = load i32, ptr %40, align 8, !tbaa !175
  call fastcc void @_gradient_slider_add_delta_internal(ptr noundef nonnull %0, double noundef %39, i32 noundef %41, i32 noundef %31)
  br label %42

42:                                               ; preds = %_get_active_marker.exit.thread, %33
  call void @llvm.lifetime.end.p0(i64 4, ptr nonnull %3) #14
  br label %43

43:                                               ; preds = %42, %_get_active_marker.exit, %DTGTK_IS_GRADIENT_SLIDER.exit.thread24, %DTGTK_IS_GRADIENT_SLIDER.exit.thread
  %.0 = phi i32 [ 1, %DTGTK_IS_GRADIENT_SLIDER.exit.thread ], [ 0, %DTGTK_IS_GRADIENT_SLIDER.exit.thread24 ], [ 1, %_get_active_marker.exit ], [ 1, %42 ]
  ret i32 %.0
}